target datalayout = "e-m:e-p270:32:32-p271:32:32-p272:64:64-i64:64-i128:128-f80:128-n8:16:32:64-S128"
target triple = "x86_64-pc-linux-gnu"

@.str.9 = private unnamed_addr constant [13 x i8] c"CREATE_PTREE\00", align 1
@.str.10 = private unnamed_addr constant [7 x i8] c"INSERT\00", align 1
@.str.11 = private unnamed_addr constant [6 x i8] c"SPLIT\00", align 1
@.str.12 = private unnamed_addr constant [12 x i8] c"VACUUM_PAGE\00", align 1
@.str.13 = private unnamed_addr constant [22 x i8] c"VACUUM_DATA_LEAF_PAGE\00", align 1
@.str.14 = private unnamed_addr constant [12 x i8] c"DELETE_PAGE\00", align 1
@.str.15 = private unnamed_addr constant [17 x i8] c"UPDATE_META_PAGE\00", align 1
@.str.16 = private unnamed_addr constant [16 x i8] c"INSERT_LISTPAGE\00", align 1
@.str.17 = private unnamed_addr constant [16 x i8] c"DELETE_LISTPAGE\00", align 1

; Function Attrs: nounwind uwtable
define dso_local ptr @gin_identify(i8 noundef zeroext %0) #0 {
  %2 = alloca i8, align 1
  %3 = alloca ptr, align 8
  store i8 %0, ptr %2, align 1
  call void @llvm.lifetime.start.p0(i64 8, ptr %3) #5
  store ptr null, ptr %3, align 8
  %4 = load i8, ptr %2, align 1
  %5 = zext i8 %4 to i32
  %6 = and i32 %5, -16
  switch i32 %6, label %16 [
    i32 16, label %7
    i32 32, label %8
    i32 48, label %9
    i32 64, label %10
    i32 144, label %11
    i32 80, label %12
    i32 96, label %13
    i32 112, label %14
    i32 128, label %15
  ]

7:                                                ; preds = %1
  store ptr @.str.9, ptr %3, align 8
  br label %16

8:                                                ; preds = %1
  store ptr @.str.10, ptr %3, align 8
  br label %16

9:                                                ; preds = %1
  store ptr @.str.11, ptr %3, align 8
  br label %16

10:                                               ; preds = %1
  store ptr @.str.12, ptr %3, align 8
  br label %16

11:                                               ; preds = %1
  store ptr @.str.13, ptr %3, align 8
  br label %16

12:                                               ; preds = %1
  store ptr @.str.14, ptr %3, align 8
  br label %16

13:                                               ; preds = %1
  store ptr @.str.15, ptr %3, align 8
  br label %16

14:                                               ; preds = %1
  store ptr @.str.16, ptr %3, align 8
  br label %16

15:                                               ; preds = %1
  store ptr @.str.17, ptr %3, align 8
  br label %16

16:                                               ; preds = %1, %15, %14, %13, %12, %11, %10, %9, %8, %7
  %17 = load ptr, ptr %3, align 8
  call void @llvm.lifetime.end.p0(i64 8, ptr %3) #5
  ret ptr %17
}