; Function Attrs: mustprogress nofree norecurse nosync nounwind willreturn memory(none) uwtable
define dso_local noundef ptr @gin_identify(i8 noundef zeroext %0) local_unnamed_addr #2 {
  %2 = zext i8 %0 to i32
  %3 = add nsw i32 %2, -16
  %4 = icmp ult i32 %3, 144
  br i1 %4, label %switch.lookup, label %7

switch.lookup:                                    ; preds = %1
  %5 = lshr i32 %3, 4
  %6 = zext nneg i32 %5 to i64
  %switch.gep = getelementptr inbounds nuw [9 x ptr], ptr @switch.table.gin_identify, i64 0, i64 %6
  %switch.load = load ptr, ptr %switch.gep, align 8
  br label %7

7:                                                ; preds = %switch.lookup, %1
  %.0 = phi ptr [ null, %1 ], [ %switch.load, %switch.lookup ]
  ret ptr %.0
}